target datalayout = "e-m:e-p270:32:32-p271:32:32-p272:64:64-i64:64-i128:128-f80:128-n8:16:32:64-S128"
target triple = "x86_64-pc-linux-gnu"

%class.btVector3 = type { [4 x float] }
%struct.GIM_AABB_DATA = type { %class.GIM_AABB, i32 }
%class.GIM_AABB = type { %class.btVector3, %class.btVector3 }
%class.gim_array = type { ptr, i32, i32 }

; Function Attrs: mustprogress nounwind uwtable
define linkonce_odr dso_local void @_ZN8GIM_AABBC2ERKS_(ptr noundef nonnull align 4 dereferenceable(32) %0, ptr noundef nonnull align 4 dereferenceable(32) %1) unnamed_addr #1 comdat align 2 {
  %3 = alloca ptr, align 8
  %4 = alloca ptr, align 8
  store ptr %0, ptr %3, align 8, !tbaa !55
  store ptr %1, ptr %4, align 8, !tbaa !55
  %5 = load ptr, ptr %3, align 8
  %6 = getelementptr inbounds nuw %class.GIM_AABB, ptr %5, i32 0, i32 0
  %7 = load ptr, ptr %4, align 8, !tbaa !55
  %8 = getelementptr inbounds nuw %class.GIM_AABB, ptr %7, i32 0, i32 0
  call void @llvm.memcpy.p0.p0.i64(ptr align 4 %6, ptr align 4 %8, i64 16, i1 false), !tbaa.struct !20
  %9 = getelementptr inbounds nuw %class.GIM_AABB, ptr %5, i32 0, i32 1
  %10 = load ptr, ptr %4, align 8, !tbaa !55
  %11 = getelementptr inbounds nuw %class.GIM_AABB, ptr %10, i32 0, i32 1
  call void @llvm.memcpy.p0.p0.i64(ptr align 4 %9, ptr align 4 %11, i64 16, i1 false), !tbaa.struct !20
  ret void
}

; Function Attrs: inlinehint mustprogress uwtable
define linkonce_odr dso_local void @_ZN13GIM_AABB_DATAC2ERKS_(ptr noundef nonnull align 4 dereferenceable(36) %0, ptr noundef nonnull align 4 dereferenceable(36) %1) unnamed_addr #6 comdat align 2 {
  %3 = alloca ptr, align 8
  %4 = alloca ptr, align 8
  store ptr %0, ptr %3, align 8, !tbaa !62
  store ptr %1, ptr %4, align 8, !tbaa !62
  %5 = load ptr, ptr %3, align 8
  %6 = getelementptr inbounds nuw %struct.GIM_AABB_DATA, ptr %5, i32 0, i32 0
  %7 = load ptr, ptr %4, align 8, !tbaa !62
  %8 = getelementptr inbounds nuw %struct.GIM_AABB_DATA, ptr %7, i32 0, i32 0
  call void @_ZN8GIM_AABBC2ERKS_(ptr noundef nonnull align 4 dereferenceable(32) %6, ptr noundef nonnull align 4 dereferenceable(32) %8)
  %9 = getelementptr inbounds nuw %struct.GIM_AABB_DATA, ptr %5, i32 0, i32 1
  %10 = load ptr, ptr %4, align 8, !tbaa !62
  %11 = getelementptr inbounds nuw %struct.GIM_AABB_DATA, ptr %10, i32 0, i32 1
  %12 = load i32, ptr %11, align 4, !tbaa !48
  store i32 %12, ptr %9, align 4, !tbaa !48
  ret void
}

; Function Attrs: inlinehint mustprogress uwtable
define linkonce_odr dso_local void @_Z17gim_swap_elementsI13GIM_AABB_DATAEvPT_mm(ptr noundef %0, i64 noundef %1, i64 noundef %2) #6 comdat {
  %4 = alloca ptr, align 8
  %5 = alloca i64, align 8
  %6 = alloca i64, align 8
  %7 = alloca %struct.GIM_AABB_DATA, align 4
  store ptr %0, ptr %4, align 8, !tbaa !62
  store i64 %1, ptr %5, align 8, !tbaa !26
  store i64 %2, ptr %6, align 8, !tbaa !26
  call void @llvm.lifetime.start.p0(i64 36, ptr %7) #11
  %8 = load ptr, ptr %4, align 8, !tbaa !62
  %9 = load i64, ptr %5, align 8, !tbaa !26
  %10 = getelementptr inbounds nuw %struct.GIM_AABB_DATA, ptr %8, i64 %9
  call void @_ZN13GIM_AABB_DATAC2ERKS_(ptr noundef nonnull align 4 dereferenceable(36) %7, ptr noundef nonnull align 4 dereferenceable(36) %10)
  %11 = load ptr, ptr %4, align 8, !tbaa !62
  %12 = load i64, ptr %6, align 8, !tbaa !26
  %13 = getelementptr inbounds nuw %struct.GIM_AABB_DATA, ptr %11, i64 %12
  %14 = load ptr, ptr %4, align 8, !tbaa !62
  %15 = load i64, ptr %5, align 8, !tbaa !26
  %16 = getelementptr inbounds nuw %struct.GIM_AABB_DATA, ptr %14, i64 %15
  call void @llvm.memcpy.p0.p0.i64(ptr align 4 %16, ptr align 4 %13, i64 36, i1 false), !tbaa.struct !63
  %17 = load ptr, ptr %4, align 8, !tbaa !62
  %18 = load i64, ptr %6, align 8, !tbaa !26
  %19 = getelementptr inbounds nuw %struct.GIM_AABB_DATA, ptr %17, i64 %18
  call void @llvm.memcpy.p0.p0.i64(ptr align 4 %19, ptr align 4 %7, i64 36, i1 false), !tbaa.struct !63
  call void @llvm.lifetime.end.p0(i64 36, ptr %7) #11
  ret void
}

; Function Attrs: inlinehint mustprogress uwtable
define linkonce_odr dso_local void @_ZN9gim_arrayI13GIM_AABB_DATAE4swapEjj(ptr noundef nonnull align 8 dereferenceable(16) %0, i32 noundef %1, i32 noundef %2) #6 comdat align 2 {
  %4 = alloca ptr, align 8
  %5 = alloca i32, align 4
  %6 = alloca i32, align 4
  store ptr %0, ptr %4, align 8, !tbaa !14
  store i32 %1, ptr %5, align 4, !tbaa !9
  store i32 %2, ptr %6, align 4, !tbaa !9
  %7 = load ptr, ptr %4, align 8
  %8 = getelementptr inbounds nuw %class.gim_array, ptr %7, i32 0, i32 0
  %9 = load ptr, ptr %8, align 8, !tbaa !28
  %10 = load i32, ptr %5, align 4, !tbaa !9
  %11 = zext i32 %10 to i64
  %12 = load i32, ptr %6, align 4, !tbaa !9
  %13 = zext i32 %12 to i64
  call void @_Z17gim_swap_elementsI13GIM_AABB_DATAEvPT_mm(ptr noundef %9, i64 noundef %11, i64 noundef %13)
  ret void
}

; Function Attrs: inlinehint mustprogress nounwind uwtable
define linkonce_odr dso_local noundef ptr @_ZN9btVector3cvPfEv(ptr noundef nonnull align 4 dereferenceable(16) %0) #4 comdat align 2 {
  %2 = alloca ptr, align 8
  store ptr %0, ptr %2, align 8, !tbaa !22
  %3 = load ptr, ptr %2, align 8
  %4 = getelementptr inbounds nuw %class.btVector3, ptr %3, i32 0, i32 0
  %5 = getelementptr inbounds [4 x float], ptr %4, i64 0, i64 0
  ret ptr %5
}

; Function Attrs: inlinehint mustprogress nounwind uwtable
define linkonce_odr dso_local noundef nonnull align 4 dereferenceable(36) ptr @_ZN9gim_arrayI13GIM_AABB_DATAEixEm(ptr noundef nonnull align 8 dereferenceable(16) %0, i64 noundef %1) #4 comdat align 2 {
  %3 = alloca ptr, align 8
  %4 = alloca i64, align 8
  store ptr %0, ptr %3, align 8, !tbaa !14
  store i64 %1, ptr %4, align 8, !tbaa !26
  %5 = load ptr, ptr %3, align 8
  %6 = getelementptr inbounds nuw %class.gim_array, ptr %5, i32 0, i32 0
  %7 = load ptr, ptr %6, align 8, !tbaa !28
  %8 = load i64, ptr %4, align 8, !tbaa !26
  %9 = getelementptr inbounds nuw %struct.GIM_AABB_DATA, ptr %7, i64 %8
  ret ptr %9
}

; Function Attrs: mustprogress uwtable
define dso_local noundef i32 @_ZN12GIM_BOX_TREE30_sort_and_calc_splitting_indexER9gim_arrayI13GIM_AABB_DATAEjjj(ptr noundef nonnull align 8 dereferenceable(24) %0, ptr noundef nonnull align 8 dereferenceable(16) %1, i32 noundef %2, i32 noundef %3, i32 noundef %4) #8 align 2 {
  %6 = alloca ptr, align 8
  %7 = alloca ptr, align 8
  %8 = alloca i32, align 4
  %9 = alloca i32, align 4
  %10 = alloca i32, align 4
  %11 = alloca i32, align 4
  %12 = alloca i32, align 4
  %13 = alloca i32, align 4
  %14 = alloca float, align 4
  %15 = alloca float, align 4
  %16 = alloca i32, align 4
  %17 = alloca i8, align 1
  store ptr %0, ptr %6, align 8, !tbaa !12
  store ptr %1, ptr %7, align 8, !tbaa !14
  store i32 %2, ptr %8, align 4, !tbaa !9
  store i32 %3, ptr %9, align 4, !tbaa !9
  store i32 %4, ptr %10, align 4, !tbaa !9
  call void @llvm.lifetime.start.p0(i64 4, ptr %11) #11
  call void @llvm.lifetime.start.p0(i64 4, ptr %12) #11
  %18 = load i32, ptr %8, align 4, !tbaa !9
  store i32 %18, ptr %12, align 4, !tbaa !9
  call void @llvm.lifetime.start.p0(i64 4, ptr %13) #11
  %19 = load i32, ptr %9, align 4, !tbaa !9
  %20 = load i32, ptr %8, align 4, !tbaa !9
  %21 = sub i32 %19, %20
  store i32 %21, ptr %13, align 4, !tbaa !9
  call void @llvm.lifetime.start.p0(i64 4, ptr %14) #11
  store float 0.000000e+00, ptr %14, align 4, !tbaa !16
  %22 = load i32, ptr %8, align 4, !tbaa !9
  store i32 %22, ptr %11, align 4, !tbaa !9
  br label %23

23:                                               ; preds = %53, %5
  %24 = load i32, ptr %11, align 4, !tbaa !9
  %25 = load i32, ptr %9, align 4, !tbaa !9
  %26 = icmp ult i32 %24, %25
  br i1 %26, label %27, label %56

27:                                               ; preds = %23
  %28 = load ptr, ptr %7, align 8, !tbaa !14
  %29 = load i32, ptr %11, align 4, !tbaa !9
  %30 = zext i32 %29 to i64
  %31 = call noundef nonnull align 4 dereferenceable(36) ptr @_ZN9gim_arrayI13GIM_AABB_DATAEixEm(ptr noundef nonnull align 8 dereferenceable(16) %28, i64 noundef %30)
  %32 = getelementptr inbounds nuw %struct.GIM_AABB_DATA, ptr %31, i32 0, i32 0
  %33 = getelementptr inbounds nuw %class.GIM_AABB, ptr %32, i32 0, i32 1
  %34 = call noundef ptr @_ZN9btVector3cvPfEv(ptr noundef nonnull align 4 dereferenceable(16) %33)
  %35 = load i32, ptr %10, align 4, !tbaa !9
  %36 = zext i32 %35 to i64
  %37 = getelementptr inbounds nuw float, ptr %34, i64 %36
  %38 = load float, ptr %37, align 4, !tbaa !16
  %39 = load ptr, ptr %7, align 8, !tbaa !14
  %40 = load i32, ptr %11, align 4, !tbaa !9
  %41 = zext i32 %40 to i64
  %42 = call noundef nonnull align 4 dereferenceable(36) ptr @_ZN9gim_arrayI13GIM_AABB_DATAEixEm(ptr noundef nonnull align 8 dereferenceable(16) %39, i64 noundef %41)
  %43 = getelementptr inbounds nuw %struct.GIM_AABB_DATA, ptr %42, i32 0, i32 0
  %44 = getelementptr inbounds nuw %class.GIM_AABB, ptr %43, i32 0, i32 0
  %45 = call noundef ptr @_ZN9btVector3cvPfEv(ptr noundef nonnull align 4 dereferenceable(16) %44)
  %46 = load i32, ptr %10, align 4, !tbaa !9
  %47 = zext i32 %46 to i64
  %48 = getelementptr inbounds nuw float, ptr %45, i64 %47
  %49 = load float, ptr %48, align 4, !tbaa !16
  %50 = fadd float %38, %49
  %51 = load float, ptr %14, align 4, !tbaa !16
  %52 = call float @llvm.fmuladd.f32(float 5.000000e-01, float %50, float %51)
  store float %52, ptr %14, align 4, !tbaa !16
  br label %53

53:                                               ; preds = %27
  %54 = load i32, ptr %11, align 4, !tbaa !9
  %55 = add i32 %54, 1
  store i32 %55, ptr %11, align 4, !tbaa !9
  br label %23, !llvm.loop !31

56:                                               ; preds = %23
  %57 = load i32, ptr %13, align 4, !tbaa !9
  %58 = uitofp i32 %57 to float
  %59 = load float, ptr %14, align 4, !tbaa !16
  %60 = fdiv float %59, %58
  store float %60, ptr %14, align 4, !tbaa !16
  %61 = load i32, ptr %8, align 4, !tbaa !9
  store i32 %61, ptr %11, align 4, !tbaa !9
  br label %62

62:                                               ; preds = %101, %56
  %63 = load i32, ptr %11, align 4, !tbaa !9
  %64 = load i32, ptr %9, align 4, !tbaa !9
  %65 = icmp ult i32 %63, %64
  br i1 %65, label %66, label %104

66:                                               ; preds = %62
  call void @llvm.lifetime.start.p0(i64 4, ptr %15) #11
  %67 = load ptr, ptr %7, align 8, !tbaa !14
  %68 = load i32, ptr %11, align 4, !tbaa !9
  %69 = zext i32 %68 to i64
  %70 = call noundef nonnull align 4 dereferenceable(36) ptr @_ZN9gim_arrayI13GIM_AABB_DATAEixEm(ptr noundef nonnull align 8 dereferenceable(16) %67, i64 noundef %69)
  %71 = getelementptr inbounds nuw %struct.GIM_AABB_DATA, ptr %70, i32 0, i32 0
  %72 = getelementptr inbounds nuw %class.GIM_AABB, ptr %71, i32 0, i32 1
  %73 = call noundef ptr @_ZN9btVector3cvPfEv(ptr noundef nonnull align 4 dereferenceable(16) %72)
  %74 = load i32, ptr %10, align 4, !tbaa !9
  %75 = zext i32 %74 to i64
  %76 = getelementptr inbounds nuw float, ptr %73, i64 %75
  %77 = load float, ptr %76, align 4, !tbaa !16
  %78 = load ptr, ptr %7, align 8, !tbaa !14
  %79 = load i32, ptr %11, align 4, !tbaa !9
  %80 = zext i32 %79 to i64
  %81 = call noundef nonnull align 4 dereferenceable(36) ptr @_ZN9gim_arrayI13GIM_AABB_DATAEixEm(ptr noundef nonnull align 8 dereferenceable(16) %78, i64 noundef %80)
  %82 = getelementptr inbounds nuw %struct.GIM_AABB_DATA, ptr %81, i32 0, i32 0
  %83 = getelementptr inbounds nuw %class.GIM_AABB, ptr %82, i32 0, i32 0
  %84 = call noundef ptr @_ZN9btVector3cvPfEv(ptr noundef nonnull align 4 dereferenceable(16) %83)
  %85 = load i32, ptr %10, align 4, !tbaa !9
  %86 = zext i32 %85 to i64
  %87 = getelementptr inbounds nuw float, ptr %84, i64 %86
  %88 = load float, ptr %87, align 4, !tbaa !16
  %89 = fadd float %77, %88
  %90 = fmul float 5.000000e-01, %89
  store float %90, ptr %15, align 4, !tbaa !16
  %91 = load float, ptr %15, align 4, !tbaa !16
  %92 = load float, ptr %14, align 4, !tbaa !16
  %93 = fcmp ogt float %91, %92
  br i1 %93, label %94, label %100

94:                                               ; preds = %66
  %95 = load ptr, ptr %7, align 8, !tbaa !14
  %96 = load i32, ptr %11, align 4, !tbaa !9
  %97 = load i32, ptr %12, align 4, !tbaa !9
  call void @_ZN9gim_arrayI13GIM_AABB_DATAE4swapEjj(ptr noundef nonnull align 8 dereferenceable(16) %95, i32 noundef %96, i32 noundef %97)
  %98 = load i32, ptr %12, align 4, !tbaa !9
  %99 = add i32 %98, 1
  store i32 %99, ptr %12, align 4, !tbaa !9
  br label %100

100:                                              ; preds = %94, %66
  call void @llvm.lifetime.end.p0(i64 4, ptr %15) #11
  br label %101

101:                                              ; preds = %100
  %102 = load i32, ptr %11, align 4, !tbaa !9
  %103 = add i32 %102, 1
  store i32 %103, ptr %11, align 4, !tbaa !9
  br label %62, !llvm.loop !32

104:                                              ; preds = %62
  call void @llvm.lifetime.start.p0(i64 4, ptr %16) #11
  %105 = load i32, ptr %13, align 4, !tbaa !9
  %106 = udiv i32 %105, 3
  store i32 %106, ptr %16, align 4, !tbaa !9
  call void @llvm.lifetime.start.p0(i64 1, ptr %17) #11
  %107 = load i32, ptr %12, align 4, !tbaa !9
  %108 = load i32, ptr %8, align 4, !tbaa !9
  %109 = load i32, ptr %16, align 4, !tbaa !9
  %110 = add i32 %108, %109
  %111 = icmp ule i32 %107, %110
  br i1 %111, label %119, label %112

112:                                              ; preds = %104
  %113 = load i32, ptr %12, align 4, !tbaa !9
  %114 = load i32, ptr %9, align 4, !tbaa !9
  %115 = sub i32 %114, 1
  %116 = load i32, ptr %16, align 4, !tbaa !9
  %117 = sub i32 %115, %116
  %118 = icmp uge i32 %113, %117
  br label %119

119:                                              ; preds = %112, %104
  %120 = phi i1 [ true, %104 ], [ %118, %112 ]
  %121 = zext i1 %120 to i8
  store i8 %121, ptr %17, align 1, !tbaa !33
  %122 = load i8, ptr %17, align 1, !tbaa !33, !range !35, !noundef !36
  %123 = trunc i8 %122 to i1
  br i1 %123, label %124, label %129

124:                                              ; preds = %119
  %125 = load i32, ptr %8, align 4, !tbaa !9
  %126 = load i32, ptr %13, align 4, !tbaa !9
  %127 = lshr i32 %126, 1
  %128 = add i32 %125, %127
  store i32 %128, ptr %12, align 4, !tbaa !9
  br label %129

129:                                              ; preds = %124, %119
  %130 = load i32, ptr %12, align 4, !tbaa !9
  call void @llvm.lifetime.end.p0(i64 1, ptr %17) #11
  call void @llvm.lifetime.end.p0(i64 4, ptr %16) #11
  call void @llvm.lifetime.end.p0(i64 4, ptr %14) #11
  call void @llvm.lifetime.end.p0(i64 4, ptr %13) #11
  call void @llvm.lifetime.end.p0(i64 4, ptr %12) #11
  call void @llvm.lifetime.end.p0(i64 4, ptr %11) #11
  ret i32 %130
}