; Function Attrs: mustprogress nofree norecurse nosync nounwind memory(readwrite, inaccessiblemem: none) uwtable
define dso_local noundef i32 @_ZN12GIM_BOX_TREE30_sort_and_calc_splitting_indexER9gim_arrayI13GIM_AABB_DATAEjjj(ptr noundef nonnull readnone align 8 captures(none) dereferenceable(24) %0, ptr noundef nonnull readonly align 8 captures(none) dereferenceable(16) %1, i32 noundef %2, i32 noundef %3, i32 noundef %4) local_unnamed_addr #3 align 2 {
  %.sroa.0.i.i = alloca %class.GIM_AABB, align 8
  %6 = sub i32 %3, %2
  %7 = icmp ult i32 %2, %3
  br i1 %7, label %.lr.ph, label %._crit_edge52

.lr.ph:                                           ; preds = %5
  %8 = load ptr, ptr %1, align 8, !tbaa !4
  %9 = zext i32 %4 to i64
  %10 = zext i32 %2 to i64
  %wide.trip.count = zext i32 %3 to i64
  br label %11

11:                                               ; preds = %.lr.ph, %11
  %indvars.iv = phi i64 [ %10, %.lr.ph ], [ %indvars.iv.next, %11 ]
  %.04446 = phi float [ 0.000000e+00, %.lr.ph ], [ %19, %11 ]
  %12 = getelementptr inbounds nuw %struct.GIM_AABB_DATA, ptr %8, i64 %indvars.iv
  %13 = getelementptr inbounds nuw i8, ptr %12, i64 16
  %14 = getelementptr inbounds nuw float, ptr %13, i64 %9
  %15 = load float, ptr %14, align 4, !tbaa !11
  %16 = getelementptr inbounds nuw float, ptr %12, i64 %9
  %17 = load float, ptr %16, align 4, !tbaa !11
  %18 = fadd float %15, %17
  %19 = tail call float @llvm.fmuladd.f32(float %18, float 5.000000e-01, float %.04446)
  %indvars.iv.next = add nuw nsw i64 %indvars.iv, 1
  %exitcond.not = icmp eq i64 %indvars.iv.next, %wide.trip.count
  br i1 %exitcond.not, label %._crit_edge, label %11, !llvm.loop !16

._crit_edge:                                      ; preds = %11
  %20 = uitofp i32 %6 to float
  %21 = fdiv float %19, %20
  %22 = zext i32 %4 to i64
  %.sroa.0.16..sroa_idx.i.i = getelementptr inbounds nuw i8, ptr %.sroa.0.i.i, i64 16
  %23 = zext i32 %2 to i64
  %wide.trip.count58 = zext i32 %3 to i64
  br label %24

24:                                               ; preds = %._crit_edge, %41
  %indvars.iv55 = phi i64 [ %23, %._crit_edge ], [ %indvars.iv.next56, %41 ]
  %.04248 = phi i32 [ %2, %._crit_edge ], [ %.143, %41 ]
  %25 = load ptr, ptr %1, align 8, !tbaa !4
  %26 = getelementptr inbounds nuw %struct.GIM_AABB_DATA, ptr %25, i64 %indvars.iv55
  %27 = getelementptr inbounds nuw i8, ptr %26, i64 16
  %28 = getelementptr inbounds nuw float, ptr %27, i64 %22
  %29 = load float, ptr %28, align 4, !tbaa !11
  %30 = getelementptr inbounds nuw float, ptr %26, i64 %22
  %31 = load float, ptr %30, align 4, !tbaa !11
  %32 = fadd float %29, %31
  %33 = fmul float %32, 5.000000e-01
  %34 = fcmp ogt float %33, %21
  br i1 %34, label %35, label %41

35:                                               ; preds = %24
  %36 = zext i32 %.04248 to i64
  call void @llvm.lifetime.start.p0(i64 32, ptr nonnull %.sroa.0.i.i)
  call void @llvm.memcpy.p0.p0.i64(ptr noundef nonnull align 8 dereferenceable(16) %.sroa.0.i.i, ptr noundef nonnull align 4 dereferenceable(16) %26, i64 16, i1 false), !tbaa.struct !17
  call void @llvm.memcpy.p0.p0.i64(ptr noundef nonnull align 8 dereferenceable(16) %.sroa.0.16..sroa_idx.i.i, ptr noundef nonnull align 4 dereferenceable(16) %27, i64 16, i1 false), !tbaa.struct !17
  %37 = getelementptr inbounds nuw i8, ptr %26, i64 32
  %38 = load i32, ptr %37, align 4, !tbaa !19
  %39 = getelementptr inbounds nuw %struct.GIM_AABB_DATA, ptr %25, i64 %36
  tail call void @llvm.memcpy.p0.p0.i64(ptr noundef nonnull align 4 dereferenceable(36) %26, ptr noundef nonnull align 4 dereferenceable(36) %39, i64 36, i1 false), !tbaa.struct !23
  call void @llvm.memcpy.p0.p0.i64(ptr noundef nonnull align 4 dereferenceable(32) %39, ptr noundef nonnull align 8 dereferenceable(32) %.sroa.0.i.i, i64 32, i1 false), !tbaa.struct !23
  %.sroa.5.0..sroa_idx.i.i = getelementptr inbounds nuw i8, ptr %39, i64 32
  store i32 %38, ptr %.sroa.5.0..sroa_idx.i.i, align 4, !tbaa !24
  call void @llvm.lifetime.end.p0(i64 32, ptr nonnull %.sroa.0.i.i)
  %40 = add i32 %.04248, 1
  br label %41

41:                                               ; preds = %35, %24
  %.143 = phi i32 [ %40, %35 ], [ %.04248, %24 ]
  %indvars.iv.next56 = add nuw nsw i64 %indvars.iv55, 1
  %exitcond59.not = icmp eq i64 %indvars.iv.next56, %wide.trip.count58
  br i1 %exitcond59.not, label %._crit_edge52, label %24, !llvm.loop !25

._crit_edge52:                                    ; preds = %41, %5
  %.042.lcssa = phi i32 [ %2, %5 ], [ %.143, %41 ]
  %42 = udiv i32 %6, 3
  %43 = add i32 %42, %2
  %.not = icmp ule i32 %.042.lcssa, %43
  %44 = xor i32 %42, -1
  %45 = add i32 %3, %44
  %46 = icmp uge i32 %.042.lcssa, %45
  %47 = or i1 %.not, %46
  %48 = lshr i32 %6, 1
  %49 = add i32 %48, %2
  %.2 = select i1 %47, i32 %49, i32 %.042.lcssa
  ret i32 %.2
}